; Function Attrs: mustprogress nounwind uwtable
define dso_local noundef zeroext i1 @_ZN5clang5index21isFunctionLocalSymbolEPKNS_4DeclE(ptr noundef %0) local_unnamed_addr #0 {
  %2 = getelementptr inbounds nuw i8, ptr %0, i64 28
  %3 = load i32, ptr %2, align 4
  %4 = and i32 %3, 127
  switch i32 %4, label %5 [
    i32 40, label %15
    i32 63, label %15
    i32 53, label %.fold.split
  ]

5:                                                ; preds = %1
  %6 = tail call noundef ptr @_ZNK5clang4Decl25getParentFunctionOrMethodEb(ptr noundef nonnull align 8 dereferenceable(33) %0, i1 noundef zeroext false) #6
  %.not = icmp eq ptr %6, null
  br i1 %.not, label %15, label %7

7:                                                ; preds = %5
  %8 = load i32, ptr %2, align 4
  %9 = and i32 %8, 127
  %10 = add nsw i32 %9, -78
  %11 = icmp ult i32 %10, -63
  br i1 %11, label %15, label %12

12:                                               ; preds = %7
  %13 = tail call noundef zeroext i8 @_ZNK5clang9NamedDecl16getFormalLinkageEv(ptr noundef nonnull align 8 dereferenceable(48) %0) #6
  %14 = add i8 %13, -7
  %switch = icmp ult i8 %14, -2
  br label %15

.fold.split:                                      ; preds = %1
  br label %15

15:                                               ; preds = %1, %1, %.fold.split, %12, %7, %5
  %.0 = phi i1 [ true, %1 ], [ false, %5 ], [ true, %7 ], [ %switch, %12 ], [ true, %1 ], [ false, %.fold.split ]
  ret i1 %.0
}